; Function Attrs: mustprogress nounwind uwtable
define hidden noundef zeroext i1 @_ZN10XMetronome13wait_for_tickEv(ptr noundef nonnull align 8 dereferenceable(129) %0) local_unnamed_addr #0 align 2 {
  %2 = getelementptr inbounds i8, ptr %0, i64 120
  %3 = load i64, ptr %2, align 8
  %4 = add i64 %3, 1
  store i64 %4, ptr %2, align 8
  %5 = icmp eq i64 %3, 0
  br i1 %5, label %6, label %12

6:                                                ; preds = %1
  %7 = tail call { i64, i64 } @_ZN29CompositeElapsedCounterSource3nowEv() #3
  %8 = extractvalue { i64, i64 } %7, 0
  %9 = tail call noundef double @_ZN10TimeHelper17counter_to_millisEl(i64 noundef %8) #3
  %10 = fptoui double %9 to i64
  %11 = getelementptr inbounds i8, ptr %0, i64 112
  store i64 %10, ptr %11, align 8
  br label %12

12:                                               ; preds = %6, %1
  tail call void @_ZN5Mutex28lock_without_safepoint_checkEv(ptr noundef nonnull align 8 dereferenceable(104) %0) #3
  %13 = getelementptr inbounds i8, ptr %0, i64 128
  %14 = load i8, ptr %13, align 8
  %15 = trunc i8 %14 to i1
  br i1 %15, label %_ZN13MonitorLockerD2Ev.exit, label %.lr.ph

.lr.ph:                                           ; preds = %12
  %16 = getelementptr inbounds i8, ptr %0, i64 112
  %17 = getelementptr inbounds i8, ptr %0, i64 104
  br label %18

18:                                               ; preds = %.lr.ph, %_ZN13MonitorLocker4waitEl.exit
  %19 = tail call { i64, i64 } @_ZN29CompositeElapsedCounterSource3nowEv() #3
  %20 = extractvalue { i64, i64 } %19, 0
  %21 = tail call noundef double @_ZN10TimeHelper17counter_to_millisEl(i64 noundef %20) #3
  %22 = fptoui double %21 to i64
  %23 = load i64, ptr %16, align 8
  %24 = load i64, ptr %17, align 8
  %25 = load i64, ptr %2, align 8
  %26 = mul i64 %25, %24
  %27 = sub i64 %23, %22
  %28 = add i64 %27, %26
  %29 = icmp sgt i64 %28, 0
  br i1 %29, label %_ZN13MonitorLocker4waitEl.exit, label %33

_ZN13MonitorLocker4waitEl.exit:                   ; preds = %18
  %30 = tail call noundef zeroext i1 @_ZN7Monitor28wait_without_safepoint_checkEm(ptr noundef nonnull align 8 dereferenceable(104) %0, i64 noundef %28) #3
  %31 = load i8, ptr %13, align 8
  %32 = trunc i8 %31 to i1
  br i1 %32, label %_ZN13MonitorLockerD2Ev.exit, label %18, !llvm.loop !6

33:                                               ; preds = %18
  %34 = icmp slt i64 %28, 0
  br i1 %34, label %35, label %_ZN13MonitorLockerD2Ev.exit

35:                                               ; preds = %33
  %36 = sub nsw i64 0, %28
  %37 = icmp ult i64 %24, %36
  br i1 %37, label %38, label %_ZN13MonitorLockerD2Ev.exit

38:                                               ; preds = %35
  %39 = udiv i64 %36, %24
  %40 = add i64 %39, %25
  store i64 %40, ptr %2, align 8
  br label %_ZN13MonitorLockerD2Ev.exit

_ZN13MonitorLockerD2Ev.exit:                      ; preds = %_ZN13MonitorLocker4waitEl.exit, %12, %33, %38, %35
  %.0 = phi i1 [ true, %33 ], [ true, %38 ], [ true, %35 ], [ false, %12 ], [ false, %_ZN13MonitorLocker4waitEl.exit ]
  tail call void @_ZN5Mutex6unlockEv(ptr noundef nonnull align 8 dereferenceable(104) %0) #3
  ret i1 %.0
}